target datalayout = "e-m:e-p270:32:32-p271:32:32-p272:64:64-i64:64-i128:128-f80:128-n8:16:32:64-S128"
target triple = "x86_64-pc-linux-gnu"

%"class.LIEF::PE::DelayImportEntry" = type <{ %"class.LIEF::Symbol", i64, i16, [6 x i8], i64, i64, i16, [6 x i8] }>
%"class.LIEF::Symbol" = type { %"class.LIEF::Object", %"class.std::__cxx11::basic_string", i64, i64 }
%"class.LIEF::Object" = type { ptr }
%"class.std::__cxx11::basic_string" = type { %"struct.std::__cxx11::basic_string<char>::_Alloc_hider", i64, %union.anon.0 }
%"struct.std::__cxx11::basic_string<char>::_Alloc_hider" = type { ptr }
%union.anon.0 = type { i64, [8 x i8] }

; Function Attrs: mustprogress nounwind uwtable
define noundef zeroext i1 @_ZNK4LIEF2PE16DelayImportEntry10is_ordinalEv(ptr noundef nonnull align 8 dereferenceable(90) %0) #1 align 2 {
  %2 = alloca i1, align 1
  %3 = alloca ptr, align 8
  %4 = alloca i64, align 8
  %5 = alloca i8, align 1
  %6 = alloca i64, align 8
  store ptr %0, ptr %3, align 8
  %7 = load ptr, ptr %3, align 8
  %8 = getelementptr inbounds %"class.LIEF::PE::DelayImportEntry", ptr %7, i32 0, i32 6
  %9 = load i16, ptr %8, align 8
  %10 = icmp eq i16 %9, 267
  %11 = select i1 %10, i64 2147483648, i64 -9223372036854775808
  store i64 %11, ptr %4, align 8
  %12 = getelementptr inbounds %"class.LIEF::PE::DelayImportEntry", ptr %7, i32 0, i32 1
  %13 = load i64, ptr %12, align 8
  %14 = load i64, ptr %4, align 8
  %15 = and i64 %13, %14
  %16 = icmp ne i64 %15, 0
  %17 = zext i1 %16 to i8
  store i8 %17, ptr %5, align 1
  %18 = load i8, ptr %5, align 1
  %19 = trunc i8 %18 to i1
  br i1 %19, label %21, label %20

20:                                               ; preds = %1
  store i1 false, ptr %2, align 1
  br label %30

21:                                               ; preds = %1
  %22 = getelementptr inbounds %"class.LIEF::PE::DelayImportEntry", ptr %7, i32 0, i32 1
  %23 = load i64, ptr %22, align 8
  %24 = load i64, ptr %4, align 8
  %25 = xor i64 %24, -1
  %26 = and i64 %23, %25
  %27 = lshr i64 %26, 15
  store i64 %27, ptr %6, align 8
  %28 = load i64, ptr %6, align 8
  %29 = icmp eq i64 %28, 0
  store i1 %29, ptr %2, align 1
  br label %30

30:                                               ; preds = %21, %20
  %31 = load i1, ptr %2, align 1
  ret i1 %31
}