; Function Attrs: mustprogress nofree norecurse nosync nounwind willreturn memory(argmem: read) uwtable
define noundef zeroext i1 @_ZNK4LIEF2PE16DelayImportEntry10is_ordinalEv(ptr nocapture noundef nonnull readonly align 8 dereferenceable(90) %0) local_unnamed_addr #6 align 2 {
  %2 = getelementptr inbounds i8, ptr %0, i64 88
  %3 = load i16, ptr %2, align 8
  %4 = icmp eq i16 %3, 267
  %5 = select i1 %4, i64 2147483648, i64 -9223372036854775808
  %6 = getelementptr inbounds i8, ptr %0, i64 56
  %7 = load i64, ptr %6, align 8
  %8 = and i64 %5, %7
  %.not = icmp ne i64 %8, 0
  %9 = xor i64 %5, -1
  %10 = and i64 %7, %9
  %11 = icmp ult i64 %10, 32768
  %.0 = and i1 %.not, %11
  ret i1 %.0
}